; Function Attrs: nounwind uwtable
define ptr @l_Lake_instEmptyCollectionLeanLibConfig___lambda__1(ptr noundef %0, i8 noundef zeroext %1) local_unnamed_addr #1 {
  %3 = icmp eq i8 %1, 0
  br i1 %3, label %4, label %9

4:                                                ; preds = %2
  %5 = load ptr, ptr @l_Lake_Module_oFacet, align 8, !tbaa !4
  tail call void @lean_inc_heartbeat() #8
  %6 = tail call noalias ptr @mi_malloc_small(i64 noundef 24) #8
  %7 = icmp eq ptr %6, null
  br i1 %7, label %8, label %lean_alloc_ctor.exit

8:                                                ; preds = %4
  tail call void @lean_internal_panic_out_of_memory() #9
  unreachable

9:                                                ; preds = %2
  %10 = load ptr, ptr @l_Lake_Module_oExportFacet, align 8, !tbaa !4
  tail call void @lean_inc_heartbeat() #8
  %11 = tail call noalias ptr @mi_malloc_small(i64 noundef 24) #8
  %12 = icmp eq ptr %11, null
  br i1 %12, label %13, label %lean_alloc_ctor.exit

13:                                               ; preds = %9
  tail call void @lean_internal_panic_out_of_memory() #9
  unreachable

lean_alloc_ctor.exit:                             ; preds = %9, %4
  %.sink21 = phi ptr [ %6, %4 ], [ %11, %9 ]
  %.sink16 = phi ptr [ %5, %4 ], [ %10, %9 ]
  %14 = getelementptr inbounds nuw i8, ptr %.sink21, i64 4
  store i32 1, ptr %.sink21, align 4, !tbaa !10
  store i32 16908312, ptr %14, align 4
  %15 = getelementptr inbounds nuw i8, ptr %.sink21, i64 8
  store ptr %.sink16, ptr %15, align 8, !tbaa !4
  %16 = getelementptr inbounds nuw i8, ptr %.sink21, i64 16
  store ptr %0, ptr %16, align 8, !tbaa !4
  %17 = tail call ptr @lean_array_mk(ptr noundef nonnull %.sink21) #8
  ret ptr %17
}